target datalayout = "e-m:e-p270:32:32-p271:32:32-p272:64:64-i64:64-i128:128-f80:128-n8:16:32:64-S128"
target triple = "x86_64-pc-linux-gnu"

%"struct.Luau::CodeGen::CodeAllocator" = type { ptr, ptr, ptr, ptr, ptr, %"class.std::vector", %"class.std::vector.0", i64, i64, ptr, ptr }
%"class.std::vector" = type { %"struct.std::_Vector_base" }
%"struct.std::_Vector_base" = type { %"struct.std::_Vector_base<unsigned char *, std::allocator<unsigned char *>>::_Vector_impl" }
%"struct.std::_Vector_base<unsigned char *, std::allocator<unsigned char *>>::_Vector_impl" = type { %"struct.std::_Vector_base<unsigned char *, std::allocator<unsigned char *>>::_Vector_impl_data" }
%"struct.std::_Vector_base<unsigned char *, std::allocator<unsigned char *>>::_Vector_impl_data" = type { ptr, ptr, ptr }
%"class.std::vector.0" = type { %"struct.std::_Vector_base.1" }
%"struct.std::_Vector_base.1" = type { %"struct.std::_Vector_base<void *, std::allocator<void *>>::_Vector_impl" }
%"struct.std::_Vector_base<void *, std::allocator<void *>>::_Vector_impl" = type { %"struct.std::_Vector_base<void *, std::allocator<void *>>::_Vector_impl_data" }
%"struct.std::_Vector_base<void *, std::allocator<void *>>::_Vector_impl_data" = type { ptr, ptr, ptr }

@_ZL9kPageSize = internal global i64 0, align 8

; Function Attrs: mustprogress nounwind uwtable
define internal void @_ZL21flushInstructionCachePhm(ptr noundef %0, i64 noundef %1) #4 {
  %3 = alloca ptr, align 8
  %4 = alloca i64, align 8
  store ptr %0, ptr %3, align 8, !tbaa !37
  store i64 %1, ptr %4, align 8, !tbaa !4
  %5 = load ptr, ptr %3, align 8, !tbaa !37
  %6 = load ptr, ptr %3, align 8, !tbaa !37
  %7 = load i64, ptr %4, align 8, !tbaa !4
  %8 = getelementptr inbounds nuw i8, ptr %6, i64 %7
  call void @llvm.clear_cache(ptr %5, ptr %8)
  ret void
}

; Function Attrs: mustprogress nounwind uwtable
define internal void @_ZL19makePagesExecutablePhm(ptr noundef %0, i64 noundef %1) #4 {
  %3 = alloca ptr, align 8
  %4 = alloca i64, align 8
  store ptr %0, ptr %3, align 8, !tbaa !37
  store i64 %1, ptr %4, align 8, !tbaa !4
  %5 = load ptr, ptr %3, align 8, !tbaa !37
  %6 = load i64, ptr %4, align 8, !tbaa !4
  %7 = call i32 @mprotect(ptr noundef %5, i64 noundef %6, i32 noundef 5) #8
  %8 = icmp ne i32 %7, 0
  br i1 %8, label %9, label %10

9:                                                ; preds = %2
  br label %10

10:                                               ; preds = %9, %2
  ret void
}

; Function Attrs: mustprogress nounwind uwtable
define internal noundef i64 @_ZL15alignToPageSizem(i64 noundef %0) #4 {
  %2 = alloca i64, align 8
  store i64 %0, ptr %2, align 8, !tbaa !4
  %3 = load i64, ptr %2, align 8, !tbaa !4
  %4 = load i64, ptr @_ZL9kPageSize, align 8, !tbaa !4
  %5 = add i64 %3, %4
  %6 = sub i64 %5, 1
  %7 = load i64, ptr @_ZL9kPageSize, align 8, !tbaa !4
  %8 = sub i64 %7, 1
  %9 = xor i64 %8, -1
  %10 = and i64 %6, %9
  ret i64 %10
}

; Function Attrs: mustprogress uwtable
define dso_local noundef zeroext i1 @_ZN4Luau7CodeGen13CodeAllocator8allocateEPKhmS3_mRPhRmS5_(ptr noundef nonnull align 8 dereferenceable(120) %0, ptr noundef %1, i64 noundef %2, ptr noundef %3, i64 noundef %4, ptr noundef nonnull align 8 dereferenceable(8) %5, ptr noundef nonnull align 8 dereferenceable(8) %6, ptr noundef nonnull align 8 dereferenceable(8) %7) #3 align 2 {
  %9 = alloca i1, align 1
  %10 = alloca ptr, align 8
  %11 = alloca ptr, align 8
  %12 = alloca i64, align 8
  %13 = alloca ptr, align 8
  %14 = alloca i64, align 8
  %15 = alloca ptr, align 8
  %16 = alloca ptr, align 8
  %17 = alloca ptr, align 8
  %18 = alloca i64, align 8
  %19 = alloca i64, align 8
  %20 = alloca i32, align 4
  %21 = alloca i64, align 8
  %22 = alloca i64, align 8
  %23 = alloca i64, align 8
  %24 = alloca i64, align 8
  store ptr %0, ptr %10, align 8, !tbaa !8
  store ptr %1, ptr %11, align 8, !tbaa !37
  store i64 %2, ptr %12, align 8, !tbaa !4
  store ptr %3, ptr %13, align 8, !tbaa !37
  store i64 %4, ptr %14, align 8, !tbaa !4
  store ptr %5, ptr %15, align 8, !tbaa !45
  store ptr %6, ptr %16, align 8, !tbaa !52
  store ptr %7, ptr %17, align 8, !tbaa !45
  %25 = load ptr, ptr %10, align 8
  call void @llvm.lifetime.start.p0(i64 8, ptr %18) #8
  %26 = load i64, ptr %12, align 8, !tbaa !4
  %27 = add i64 %26, 31
  %28 = and i64 %27, 4294967264
  store i64 %28, ptr %18, align 8, !tbaa !4
  call void @llvm.lifetime.start.p0(i64 8, ptr %19) #8
  %29 = load i64, ptr %18, align 8, !tbaa !4
  %30 = load i64, ptr %14, align 8, !tbaa !4
  %31 = add i64 %29, %30
  store i64 %31, ptr %19, align 8, !tbaa !4
  %32 = load i64, ptr %19, align 8, !tbaa !4
  %33 = getelementptr inbounds nuw %"struct.Luau::CodeGen::CodeAllocator", ptr %25, i32 0, i32 7
  %34 = load i64, ptr %33, align 8, !tbaa !29
  %35 = sub i64 %34, 256
  %36 = icmp ugt i64 %32, %35
  br i1 %36, label %37, label %38

37:                                               ; preds = %8
  store i1 false, ptr %9, align 1
  store i32 1, ptr %20, align 4
  br label %125

38:                                               ; preds = %8
  call void @llvm.lifetime.start.p0(i64 8, ptr %21) #8
  store i64 0, ptr %21, align 8, !tbaa !4
  %39 = load i64, ptr %19, align 8, !tbaa !4
  %40 = getelementptr inbounds nuw %"struct.Luau::CodeGen::CodeAllocator", ptr %25, i32 0, i32 4
  %41 = load ptr, ptr %40, align 8, !tbaa !28
  %42 = getelementptr inbounds nuw %"struct.Luau::CodeGen::CodeAllocator", ptr %25, i32 0, i32 3
  %43 = load ptr, ptr %42, align 8, !tbaa !27
  %44 = ptrtoint ptr %41 to i64
  %45 = ptrtoint ptr %43 to i64
  %46 = sub i64 %44, %45
  %47 = icmp ugt i64 %39, %46
  br i1 %47, label %48, label %52

48:                                               ; preds = %38
  %49 = call noundef zeroext i1 @_ZN4Luau7CodeGen13CodeAllocator16allocateNewBlockERm(ptr noundef nonnull align 8 dereferenceable(120) %25, ptr noundef nonnull align 8 dereferenceable(8) %21)
  br i1 %49, label %51, label %50

50:                                               ; preds = %48
  store i1 false, ptr %9, align 1
  store i32 1, ptr %20, align 4
  br label %124

51:                                               ; preds = %48
  br label %52

52:                                               ; preds = %51, %38
  call void @llvm.lifetime.start.p0(i64 8, ptr %22) #8
  %53 = load i64, ptr %21, align 8, !tbaa !4
  %54 = load i64, ptr %18, align 8, !tbaa !4
  %55 = add i64 %53, %54
  %56 = load i64, ptr %12, align 8, !tbaa !4
  %57 = sub i64 %55, %56
  store i64 %57, ptr %22, align 8, !tbaa !4
  call void @llvm.lifetime.start.p0(i64 8, ptr %23) #8
  %58 = load i64, ptr %21, align 8, !tbaa !4
  %59 = load i64, ptr %18, align 8, !tbaa !4
  %60 = add i64 %58, %59
  store i64 %60, ptr %23, align 8, !tbaa !4
  %61 = load i64, ptr %12, align 8, !tbaa !4
  %62 = icmp ne i64 %61, 0
  br i1 %62, label %63, label %70

63:                                               ; preds = %52
  %64 = getelementptr inbounds nuw %"struct.Luau::CodeGen::CodeAllocator", ptr %25, i32 0, i32 3
  %65 = load ptr, ptr %64, align 8, !tbaa !27
  %66 = load i64, ptr %22, align 8, !tbaa !4
  %67 = getelementptr inbounds nuw i8, ptr %65, i64 %66
  %68 = load ptr, ptr %11, align 8, !tbaa !37
  %69 = load i64, ptr %12, align 8, !tbaa !4
  call void @llvm.memcpy.p0.p0.i64(ptr align 1 %67, ptr align 1 %68, i64 %69, i1 false)
  br label %70

70:                                               ; preds = %63, %52
  %71 = load i64, ptr %14, align 8, !tbaa !4
  %72 = icmp ne i64 %71, 0
  br i1 %72, label %73, label %80

73:                                               ; preds = %70
  %74 = getelementptr inbounds nuw %"struct.Luau::CodeGen::CodeAllocator", ptr %25, i32 0, i32 3
  %75 = load ptr, ptr %74, align 8, !tbaa !27
  %76 = load i64, ptr %23, align 8, !tbaa !4
  %77 = getelementptr inbounds nuw i8, ptr %75, i64 %76
  %78 = load ptr, ptr %13, align 8, !tbaa !37
  %79 = load i64, ptr %14, align 8, !tbaa !4
  call void @llvm.memcpy.p0.p0.i64(ptr align 1 %77, ptr align 1 %78, i64 %79, i1 false)
  br label %80

80:                                               ; preds = %73, %70
  call void @llvm.lifetime.start.p0(i64 8, ptr %24) #8
  %81 = load i64, ptr %21, align 8, !tbaa !4
  %82 = load i64, ptr %19, align 8, !tbaa !4
  %83 = add i64 %81, %82
  %84 = call noundef i64 @_ZL15alignToPageSizem(i64 noundef %83)
  store i64 %84, ptr %24, align 8, !tbaa !4
  %85 = getelementptr inbounds nuw %"struct.Luau::CodeGen::CodeAllocator", ptr %25, i32 0, i32 3
  %86 = load ptr, ptr %85, align 8, !tbaa !27
  %87 = load i64, ptr %24, align 8, !tbaa !4
  call void @_ZL19makePagesExecutablePhm(ptr noundef %86, i64 noundef %87)
  %88 = getelementptr inbounds nuw %"struct.Luau::CodeGen::CodeAllocator", ptr %25, i32 0, i32 3
  %89 = load ptr, ptr %88, align 8, !tbaa !27
  %90 = load i64, ptr %23, align 8, !tbaa !4
  %91 = getelementptr inbounds nuw i8, ptr %89, i64 %90
  %92 = load i64, ptr %14, align 8, !tbaa !4
  call void @_ZL21flushInstructionCachePhm(ptr noundef %91, i64 noundef %92)
  %93 = getelementptr inbounds nuw %"struct.Luau::CodeGen::CodeAllocator", ptr %25, i32 0, i32 3
  %94 = load ptr, ptr %93, align 8, !tbaa !27
  %95 = load i64, ptr %21, align 8, !tbaa !4
  %96 = getelementptr inbounds nuw i8, ptr %94, i64 %95
  %97 = load ptr, ptr %15, align 8, !tbaa !45
  store ptr %96, ptr %97, align 8, !tbaa !37
  %98 = load i64, ptr %19, align 8, !tbaa !4
  %99 = load ptr, ptr %16, align 8, !tbaa !52
  store i64 %98, ptr %99, align 8, !tbaa !4
  %100 = getelementptr inbounds nuw %"struct.Luau::CodeGen::CodeAllocator", ptr %25, i32 0, i32 3
  %101 = load ptr, ptr %100, align 8, !tbaa !27
  %102 = load i64, ptr %23, align 8, !tbaa !4
  %103 = getelementptr inbounds nuw i8, ptr %101, i64 %102
  %104 = load ptr, ptr %17, align 8, !tbaa !45
  store ptr %103, ptr %104, align 8, !tbaa !37
  %105 = load i64, ptr %24, align 8, !tbaa !4
  %106 = getelementptr inbounds nuw %"struct.Luau::CodeGen::CodeAllocator", ptr %25, i32 0, i32 4
  %107 = load ptr, ptr %106, align 8, !tbaa !28
  %108 = getelementptr inbounds nuw %"struct.Luau::CodeGen::CodeAllocator", ptr %25, i32 0, i32 3
  %109 = load ptr, ptr %108, align 8, !tbaa !27
  %110 = ptrtoint ptr %107 to i64
  %111 = ptrtoint ptr %109 to i64
  %112 = sub i64 %110, %111
  %113 = icmp ule i64 %105, %112
  br i1 %113, label %114, label %119

114:                                              ; preds = %80
  %115 = load i64, ptr %24, align 8, !tbaa !4
  %116 = getelementptr inbounds nuw %"struct.Luau::CodeGen::CodeAllocator", ptr %25, i32 0, i32 3
  %117 = load ptr, ptr %116, align 8, !tbaa !27
  %118 = getelementptr inbounds nuw i8, ptr %117, i64 %115
  store ptr %118, ptr %116, align 8, !tbaa !27
  br label %123

119:                                              ; preds = %80
  %120 = getelementptr inbounds nuw %"struct.Luau::CodeGen::CodeAllocator", ptr %25, i32 0, i32 4
  %121 = load ptr, ptr %120, align 8, !tbaa !28
  %122 = getelementptr inbounds nuw %"struct.Luau::CodeGen::CodeAllocator", ptr %25, i32 0, i32 3
  store ptr %121, ptr %122, align 8, !tbaa !27
  br label %123

123:                                              ; preds = %119, %114
  store i1 true, ptr %9, align 1
  store i32 1, ptr %20, align 4
  call void @llvm.lifetime.end.p0(i64 8, ptr %24) #8
  call void @llvm.lifetime.end.p0(i64 8, ptr %23) #8
  call void @llvm.lifetime.end.p0(i64 8, ptr %22) #8
  br label %124

124:                                              ; preds = %123, %50
  call void @llvm.lifetime.end.p0(i64 8, ptr %21) #8
  br label %125

125:                                              ; preds = %124, %37
  call void @llvm.lifetime.end.p0(i64 8, ptr %19) #8
  call void @llvm.lifetime.end.p0(i64 8, ptr %18) #8
  %126 = load i1, ptr %9, align 1
  ret i1 %126
}