; Function Attrs: mustprogress uwtable
define dso_local noundef zeroext i1 @_ZN4Luau7CodeGen13CodeAllocator8allocateEPKhmS3_mRPhRmS5_(ptr noundef nonnull align 8 captures(none) dereferenceable(120) %0, ptr noundef readonly captures(none) %1, i64 noundef %2, ptr noundef readonly captures(none) %3, i64 noundef %4, ptr noundef nonnull writeonly align 8 captures(none) dereferenceable(8) %5, ptr noundef nonnull writeonly align 8 captures(none) dereferenceable(8) %6, ptr noundef nonnull writeonly align 8 captures(none) dereferenceable(8) %7) local_unnamed_addr #6 align 2 {
  %9 = alloca i64, align 8
  %10 = add i64 %2, 31
  %11 = and i64 %10, 4294967264
  %12 = add i64 %11, %4
  %13 = getelementptr inbounds nuw i8, ptr %0, i64 88
  %14 = load i64, ptr %13, align 8, !tbaa !4
  %15 = add i64 %14, -256
  %16 = icmp ugt i64 %12, %15
  br i1 %16, label %62, label %17

17:                                               ; preds = %8
  call void @llvm.lifetime.start.p0(i64 8, ptr nonnull %9) #8
  store i64 0, ptr %9, align 8, !tbaa !34
  %18 = getelementptr inbounds nuw i8, ptr %0, i64 32
  %19 = load ptr, ptr %18, align 8, !tbaa !35
  %20 = getelementptr inbounds nuw i8, ptr %0, i64 24
  %21 = load ptr, ptr %20, align 8, !tbaa !36
  %22 = ptrtoint ptr %19 to i64
  %23 = ptrtoint ptr %21 to i64
  %24 = sub i64 %22, %23
  %25 = icmp ugt i64 %12, %24
  br i1 %25, label %26, label %28

26:                                               ; preds = %17
  %27 = call noundef zeroext i1 @_ZN4Luau7CodeGen13CodeAllocator16allocateNewBlockERm(ptr noundef nonnull align 8 dereferenceable(120) %0, ptr noundef nonnull align 8 dereferenceable(8) %9)
  br i1 %27, label %._crit_edge, label %61

._crit_edge:                                      ; preds = %26
  %.pre = load i64, ptr %9, align 8, !tbaa !34
  %.pre35.pre36.pre = load ptr, ptr %20, align 8, !tbaa !36
  br label %28

28:                                               ; preds = %._crit_edge, %17
  %.pre35.pre36 = phi ptr [ %.pre35.pre36.pre, %._crit_edge ], [ %21, %17 ]
  %29 = phi i64 [ %.pre, %._crit_edge ], [ 0, %17 ]
  %30 = add i64 %29, %11
  %.not = icmp eq i64 %2, 0
  br i1 %.not, label %34, label %31

31:                                               ; preds = %28
  %32 = sub i64 %30, %2
  %33 = getelementptr inbounds nuw i8, ptr %.pre35.pre36, i64 %32
  call void @llvm.memcpy.p0.p0.i64(ptr align 1 %33, ptr align 1 %1, i64 %2, i1 false)
  %.pre35.pre = load ptr, ptr %20, align 8, !tbaa !36
  br label %34

34:                                               ; preds = %31, %28
  %.pre35 = phi ptr [ %.pre35.pre, %31 ], [ %.pre35.pre36, %28 ]
  %.not32 = icmp eq i64 %4, 0
  br i1 %.not32, label %37, label %35

35:                                               ; preds = %34
  %36 = getelementptr inbounds nuw i8, ptr %.pre35, i64 %30
  call void @llvm.memcpy.p0.p0.i64(ptr align 1 %36, ptr align 1 %3, i64 %4, i1 false)
  %.pre34 = load ptr, ptr %20, align 8, !tbaa !36
  br label %37

37:                                               ; preds = %35, %34
  %38 = phi ptr [ %.pre34, %35 ], [ %.pre35, %34 ]
  %39 = load i64, ptr %9, align 8, !tbaa !34
  %40 = load i64, ptr @_ZL9kPageSize, align 8, !tbaa !34
  %41 = add i64 %12, -1
  %42 = add i64 %41, %39
  %43 = add i64 %42, %40
  %44 = sub i64 0, %40
  %45 = and i64 %43, %44
  %46 = call i32 @mprotect(ptr noundef %38, i64 noundef %45, i32 noundef 5) #8
  %47 = load ptr, ptr %20, align 8, !tbaa !36
  %48 = getelementptr inbounds nuw i8, ptr %47, i64 %30
  %49 = getelementptr inbounds nuw i8, ptr %48, i64 %4
  call void @llvm.clear_cache(ptr %48, ptr %49)
  %50 = load ptr, ptr %20, align 8, !tbaa !36
  %51 = load i64, ptr %9, align 8, !tbaa !34
  %52 = getelementptr inbounds nuw i8, ptr %50, i64 %51
  store ptr %52, ptr %5, align 8, !tbaa !33
  store i64 %12, ptr %6, align 8, !tbaa !34
  %53 = load ptr, ptr %20, align 8, !tbaa !36
  %54 = getelementptr inbounds nuw i8, ptr %53, i64 %30
  store ptr %54, ptr %7, align 8, !tbaa !33
  %55 = load ptr, ptr %18, align 8, !tbaa !35
  %56 = load ptr, ptr %20, align 8, !tbaa !36
  %57 = ptrtoint ptr %55 to i64
  %58 = ptrtoint ptr %56 to i64
  %59 = sub i64 %57, %58
  %.not33 = icmp ugt i64 %45, %59
  %60 = getelementptr inbounds nuw i8, ptr %56, i64 %45
  %storemerge = select i1 %.not33, ptr %55, ptr %60
  store ptr %storemerge, ptr %20, align 8, !tbaa !36
  br label %61

61:                                               ; preds = %26, %37
  %.1 = phi i1 [ true, %37 ], [ false, %26 ]
  call void @llvm.lifetime.end.p0(i64 8, ptr nonnull %9) #8
  br label %62

62:                                               ; preds = %8, %61
  %.0 = phi i1 [ %.1, %61 ], [ false, %8 ]
  ret i1 %.0
}